target datalayout = "e-m:e-p270:32:32-p271:32:32-p272:64:64-i64:64-i128:128-f80:128-n8:16:32:64-S128"
target triple = "x86_64-pc-linux-gnu"

%struct._zend_executor_globals = type { %struct._zval_struct, %struct._zval_struct, [32 x ptr], ptr, ptr, %struct._zend_array, %struct._zend_array, ptr, i32, i8, %struct._zval_struct, i32, ptr, ptr, ptr, ptr, ptr, ptr, i64, ptr, ptr, i32, ptr, i32, i64, i32, i32, i32, i8, i8, %struct.zend_atomic_bool_s, %struct.zend_atomic_bool_s, ptr, i64, ptr, ptr, %struct._zend_array, %struct._zend_array, i32, i8, %struct._zval_struct, %struct._zval_struct, %struct._zend_stack, %struct._zend_stack, %struct._zend_stack, ptr, i32, i32, i64, ptr, ptr, ptr, %struct._zend_objects_store, %struct._zend_lazy_objects_store, ptr, ptr, ptr, [3 x %struct._zend_op], ptr, i8, i8, i64, i32, i32, ptr, [16 x %struct._HashTableIterator], ptr, %union._zend_function, %struct._zend_op, %struct._zend_array, i64, %struct.zend_get_gc_buffer, ptr, ptr, ptr, i64, i8, i32, ptr, ptr, i64, %struct._zend_call_stack, i64, i64, %struct._zend_strtod_state, [6 x ptr] }
%struct.zend_atomic_bool_s = type { i8 }
%struct._zval_struct = type { %union._zend_value, %union.anon.9, %union.anon.12 }
%union._zend_value = type { i64 }
%union.anon.9 = type { i32 }
%union.anon.12 = type { i32 }
%struct._zend_stack = type { i32, i32, i32, ptr }
%struct._zend_objects_store = type { ptr, i32, i32, i32 }
%struct._zend_lazy_objects_store = type { %struct._zend_array }
%struct._HashTableIterator = type { ptr, i32, i32 }
%union._zend_function = type { %struct._zend_op_array }
%struct._zend_op_array = type { i8, [3 x i8], i32, ptr, ptr, ptr, i32, i32, ptr, ptr, ptr, ptr, i32, ptr, i32, i32, i32, ptr, ptr, ptr, ptr, ptr, i32, i32, ptr, ptr, ptr, i32, i32, i32, i32, ptr, ptr, [6 x ptr] }
%struct._zend_op = type { ptr, %union._znode_op, %union._znode_op, %union._znode_op, i32, i32, i8, i8, i8, i8 }
%union._znode_op = type { i32 }
%struct._zend_array = type { %struct._zend_refcounted_h, %union.anon.1, i32, %union.anon.2, i32, i32, i32, i32, i64, ptr }
%struct._zend_refcounted_h = type { i32, %union.anon.0 }
%union.anon.0 = type { i32 }
%union.anon.1 = type { i32 }
%union.anon.2 = type { ptr }
%struct.zend_get_gc_buffer = type { ptr, ptr, ptr }
%struct._zend_call_stack = type { ptr, i64 }
%struct._zend_strtod_state = type { [8 x ptr], ptr, ptr }
%struct.reflection_object = type { %struct._zval_struct, ptr, ptr, i32, %struct._zend_object }
%struct._zend_object = type { %struct._zend_refcounted_h, i32, i32, ptr, ptr, ptr, [1 x %struct._zval_struct] }
%struct._zend_execute_data = type { ptr, ptr, ptr, ptr, %struct._zval_struct, ptr, ptr, ptr, ptr }
%struct._zend_generator = type { %struct._zend_object, ptr, ptr, %struct._zval_struct, %struct._zval_struct, %struct._zval_struct, ptr, i64, %struct._zval_struct, %struct._zend_generator_node, %struct._zend_execute_data, ptr, i8 }
%struct._zend_generator_node = type { ptr, i32, %union.anon.14, %union.anon.15 }
%union.anon.14 = type { ptr }
%union.anon.15 = type { ptr }

@reflection_exception_ptr = dso_local global ptr null, align 8
@executor_globals = external global %struct._zend_executor_globals, align 8
@.str.16 = private unnamed_addr constant [49 x i8] c"Cannot fetch information from a closed Generator\00", align 1

; Function Attrs: alwaysinline nounwind uwtable
define internal i32 @zend_gc_addref(ptr noundef %0) #4 {
  %2 = alloca ptr, align 8
  store ptr %0, ptr %2, align 8, !tbaa !44
  br label %3

3:                                                ; preds = %1
  br label %4

4:                                                ; preds = %3
  %5 = load ptr, ptr %2, align 8, !tbaa !44
  %6 = getelementptr inbounds nuw %struct._zend_refcounted_h, ptr %5, i32 0, i32 0
  %7 = load i32, ptr %6, align 4, !tbaa !46
  %8 = add i32 %7, 1
  store i32 %8, ptr %6, align 4, !tbaa !46
  ret i32 %8
}

; Function Attrs: alwaysinline nounwind uwtable
define internal ptr @zend_generator_get_current(ptr noundef %0) #4 {
  %2 = alloca ptr, align 8
  %3 = alloca ptr, align 8
  %4 = alloca ptr, align 8
  %5 = alloca i32, align 4
  store ptr %0, ptr %3, align 8, !tbaa !162
  %6 = load ptr, ptr %3, align 8, !tbaa !162
  %7 = getelementptr inbounds nuw %struct._zend_generator, ptr %6, i32 0, i32 9
  %8 = getelementptr inbounds nuw %struct._zend_generator_node, ptr %7, i32 0, i32 0
  %9 = load ptr, ptr %8, align 8, !tbaa !170
  %10 = icmp eq ptr %9, null
  %11 = xor i1 %10, true
  %12 = xor i1 %11, true
  %13 = zext i1 %12 to i32
  %14 = sext i32 %13 to i64
  %15 = call i64 @llvm.expect.i64(i64 %14, i64 1)
  %16 = icmp ne i64 %15, 0
  br i1 %16, label %17, label %19

17:                                               ; preds = %1
  %18 = load ptr, ptr %3, align 8, !tbaa !162
  store ptr %18, ptr %2, align 8
  br label %46

19:                                               ; preds = %1
  call void @llvm.lifetime.start.p0(i64 8, ptr %4) #14
  %20 = load ptr, ptr %3, align 8, !tbaa !162
  %21 = getelementptr inbounds nuw %struct._zend_generator, ptr %20, i32 0, i32 9
  %22 = getelementptr inbounds nuw %struct._zend_generator_node, ptr %21, i32 0, i32 3
  %23 = load ptr, ptr %22, align 8, !tbaa !29
  store ptr %23, ptr %4, align 8, !tbaa !162
  %24 = load ptr, ptr %4, align 8, !tbaa !162
  %25 = icmp ne ptr %24, null
  br i1 %25, label %29, label %26

26:                                               ; preds = %19
  %27 = load ptr, ptr %3, align 8, !tbaa !162
  %28 = call ptr @zend_generator_update_root(ptr noundef %27)
  store ptr %28, ptr %4, align 8, !tbaa !162
  br label %29

29:                                               ; preds = %26, %19
  %30 = load ptr, ptr %4, align 8, !tbaa !162
  %31 = getelementptr inbounds nuw %struct._zend_generator, ptr %30, i32 0, i32 1
  %32 = load ptr, ptr %31, align 8, !tbaa !165
  %33 = icmp ne ptr %32, null
  %34 = xor i1 %33, true
  %35 = xor i1 %34, true
  %36 = zext i1 %35 to i32
  %37 = sext i32 %36 to i64
  %38 = call i64 @llvm.expect.i64(i64 %37, i64 1)
  %39 = icmp ne i64 %38, 0
  br i1 %39, label %40, label %42

40:                                               ; preds = %29
  %41 = load ptr, ptr %4, align 8, !tbaa !162
  store ptr %41, ptr %2, align 8
  store i32 1, ptr %5, align 4
  br label %45

42:                                               ; preds = %29
  %43 = load ptr, ptr %3, align 8, !tbaa !162
  %44 = call ptr @zend_generator_update_current(ptr noundef %43)
  store ptr %44, ptr %2, align 8
  store i32 1, ptr %5, align 4
  br label %45

45:                                               ; preds = %42, %40
  call void @llvm.lifetime.end.p0(i64 8, ptr %4) #14
  br label %46

46:                                               ; preds = %45, %17
  %47 = load ptr, ptr %2, align 8
  ret ptr %47
}

; Function Attrs: inlinehint nounwind uwtable
define internal ptr @reflection_object_from_obj(ptr noundef %0) #3 {
  %2 = alloca ptr, align 8
  store ptr %0, ptr %2, align 8, !tbaa !39
  %3 = load ptr, ptr %2, align 8, !tbaa !39
  %4 = getelementptr inbounds i8, ptr %3, i64 -40
  ret ptr %4
}

; Function Attrs: nounwind uwtable
define hidden void @zim_ReflectionGenerator_getExecutingGenerator(ptr noundef %0, ptr noundef %1) #0 {
  %3 = alloca ptr, align 8
  %4 = alloca ptr, align 8
  %5 = alloca ptr, align 8
  %6 = alloca ptr, align 8
  %7 = alloca ptr, align 8
  %8 = alloca i32, align 4
  %9 = alloca ptr, align 8
  %10 = alloca ptr, align 8
  store ptr %0, ptr %3, align 8, !tbaa !47
  store ptr %1, ptr %4, align 8, !tbaa !9
  call void @llvm.lifetime.start.p0(i64 8, ptr %5) #14
  %11 = load ptr, ptr %3, align 8, !tbaa !47
  %12 = getelementptr inbounds nuw %struct._zend_execute_data, ptr %11, i32 0, i32 4
  %13 = getelementptr inbounds nuw %struct._zval_struct, ptr %12, i32 0, i32 0
  %14 = load ptr, ptr %13, align 8, !tbaa !29
  %15 = call ptr @reflection_object_from_obj(ptr noundef %14)
  %16 = getelementptr inbounds nuw %struct.reflection_object, ptr %15, i32 0, i32 0
  %17 = getelementptr inbounds nuw %struct._zval_struct, ptr %16, i32 0, i32 0
  %18 = load ptr, ptr %17, align 8, !tbaa !29
  store ptr %18, ptr %5, align 8, !tbaa !162
  call void @llvm.lifetime.start.p0(i64 8, ptr %6) #14
  %19 = load ptr, ptr %5, align 8, !tbaa !162
  %20 = getelementptr inbounds nuw %struct._zend_generator, ptr %19, i32 0, i32 1
  %21 = load ptr, ptr %20, align 8, !tbaa !165
  store ptr %21, ptr %6, align 8, !tbaa !47
  call void @llvm.lifetime.start.p0(i64 8, ptr %7) #14
  br label %22

22:                                               ; preds = %2
  %23 = load ptr, ptr %3, align 8, !tbaa !47
  %24 = getelementptr inbounds nuw %struct._zend_execute_data, ptr %23, i32 0, i32 4
  %25 = getelementptr inbounds nuw %struct._zval_struct, ptr %24, i32 0, i32 2
  %26 = load i32, ptr %25, align 4, !tbaa !29
  %27 = icmp ne i32 %26, 0
  %28 = xor i1 %27, true
  %29 = xor i1 %28, true
  %30 = zext i1 %29 to i32
  %31 = sext i32 %30 to i64
  %32 = call i64 @llvm.expect.i64(i64 %31, i64 0)
  %33 = icmp ne i64 %32, 0
  br i1 %33, label %34, label %35

34:                                               ; preds = %22
  call void @zend_wrong_parameters_none_error()
  store i32 1, ptr %8, align 4
  br label %68

35:                                               ; preds = %22
  br label %36

36:                                               ; preds = %35
  br label %37

37:                                               ; preds = %36
  %38 = load ptr, ptr %6, align 8, !tbaa !47
  %39 = icmp ne ptr %38, null
  br i1 %39, label %48, label %40

40:                                               ; preds = %37
  %41 = load ptr, ptr @reflection_exception_ptr, align 8, !tbaa !4
  %42 = call ptr @zend_throw_exception(ptr noundef %41, ptr noundef @.str.16, i64 noundef 0)
  br label %43

43:                                               ; preds = %40
  %44 = load ptr, ptr getelementptr inbounds nuw (%struct._zend_executor_globals, ptr @executor_globals, i32 0, i32 54), align 8, !tbaa !49
  %45 = icmp ne ptr %44, null
  call void @llvm.assume(i1 %45)
  store i32 1, ptr %8, align 4
  br label %68

46:                                               ; No predecessors!
  br label %47

47:                                               ; preds = %46
  br label %48

48:                                               ; preds = %47, %37
  %49 = load ptr, ptr %5, align 8, !tbaa !162
  %50 = call ptr @zend_generator_get_current(ptr noundef %49)
  store ptr %50, ptr %7, align 8, !tbaa !162
  br label %51

51:                                               ; preds = %48
  br label %52

52:                                               ; preds = %51
  call void @llvm.lifetime.start.p0(i64 8, ptr %9) #14
  %53 = load ptr, ptr %4, align 8, !tbaa !9
  store ptr %53, ptr %9, align 8, !tbaa !9
  call void @llvm.lifetime.start.p0(i64 8, ptr %10) #14
  %54 = load ptr, ptr %7, align 8, !tbaa !162
  %55 = getelementptr inbounds nuw %struct._zend_generator, ptr %54, i32 0, i32 0
  store ptr %55, ptr %10, align 8, !tbaa !39
  %56 = load ptr, ptr %10, align 8, !tbaa !39
  %57 = getelementptr inbounds nuw %struct._zend_object, ptr %56, i32 0, i32 0
  %58 = call i32 @zend_gc_addref(ptr noundef %57)
  %59 = load ptr, ptr %10, align 8, !tbaa !39
  %60 = load ptr, ptr %9, align 8, !tbaa !9
  %61 = getelementptr inbounds nuw %struct._zval_struct, ptr %60, i32 0, i32 0
  store ptr %59, ptr %61, align 8, !tbaa !29
  %62 = load ptr, ptr %9, align 8, !tbaa !9
  %63 = getelementptr inbounds nuw %struct._zval_struct, ptr %62, i32 0, i32 1
  store i32 776, ptr %63, align 8, !tbaa !29
  call void @llvm.lifetime.end.p0(i64 8, ptr %10) #14
  call void @llvm.lifetime.end.p0(i64 8, ptr %9) #14
  br label %64

64:                                               ; preds = %52
  br label %65

65:                                               ; preds = %64
  store i32 1, ptr %8, align 4
  br label %68

66:                                               ; No predecessors!
  br label %67

67:                                               ; preds = %66
  store i32 0, ptr %8, align 4
  br label %68

68:                                               ; preds = %67, %65, %43, %34
  call void @llvm.lifetime.end.p0(i64 8, ptr %7) #14
  call void @llvm.lifetime.end.p0(i64 8, ptr %6) #14
  call void @llvm.lifetime.end.p0(i64 8, ptr %5) #14
  %69 = load i32, ptr %8, align 4
  switch i32 %69, label %71 [
    i32 0, label %70
    i32 1, label %70
  ]

70:                                               ; preds = %68, %68
  ret void

71:                                               ; preds = %68
  unreachable
}