; Function Attrs: nounwind uwtable
define hidden void @zim_ReflectionGenerator_getExecutingGenerator(ptr noundef readonly captures(none) %0, ptr noundef writeonly captures(none) %1) #0 {
  %3 = getelementptr inbounds nuw i8, ptr %0, i64 32
  %4 = load ptr, ptr %3, align 8, !tbaa !26
  %5 = getelementptr inbounds i8, ptr %4, i64 -40
  %6 = load ptr, ptr %5, align 8, !tbaa !26
  %7 = getelementptr inbounds nuw i8, ptr %0, i64 44
  %8 = load i32, ptr %7, align 4, !tbaa !26
  %.not = icmp eq i32 %8, 0
  br i1 %.not, label %10, label %9, !prof !70

9:                                                ; preds = %2
  tail call void @zend_wrong_parameters_none_error() #13
  br label %35

10:                                               ; preds = %2
  %11 = getelementptr inbounds nuw i8, ptr %6, i64 56
  %12 = load ptr, ptr %11, align 8, !tbaa !158
  %.not11 = icmp eq ptr %12, null
  br i1 %.not11, label %13, label %18

13:                                               ; preds = %10
  %14 = load ptr, ptr @reflection_exception_ptr, align 8, !tbaa !38
  %15 = tail call ptr @zend_throw_exception(ptr noundef %14, ptr noundef nonnull @.str.16, i64 noundef 0) #13
  %16 = load ptr, ptr getelementptr inbounds nuw (i8, ptr @executor_globals, i64 960), align 8, !tbaa !39
  %17 = icmp ne ptr %16, null
  tail call void @llvm.assume(i1 %17)
  br label %35

18:                                               ; preds = %10
  %19 = getelementptr inbounds nuw i8, ptr %6, i64 152
  %20 = load ptr, ptr %19, align 8, !tbaa !162
  %21 = icmp eq ptr %20, null
  br i1 %21, label %zend_generator_get_current.exit, label %22, !prof !70

22:                                               ; preds = %18
  %23 = getelementptr inbounds nuw i8, ptr %6, i64 176
  %24 = load ptr, ptr %23, align 8, !tbaa !26
  %.not.i = icmp eq ptr %24, null
  br i1 %.not.i, label %25, label %27

25:                                               ; preds = %22
  %26 = tail call ptr @zend_generator_update_root(ptr noundef nonnull %6) #13
  br label %27

27:                                               ; preds = %25, %22
  %.0.i = phi ptr [ %24, %22 ], [ %26, %25 ]
  %28 = getelementptr inbounds nuw i8, ptr %.0.i, i64 56
  %29 = load ptr, ptr %28, align 8, !tbaa !158
  %.not11.i = icmp eq ptr %29, null
  br i1 %.not11.i, label %30, label %zend_generator_get_current.exit, !prof !75

30:                                               ; preds = %27
  %31 = tail call ptr @zend_generator_update_current(ptr noundef nonnull %6) #13
  br label %zend_generator_get_current.exit

zend_generator_get_current.exit:                  ; preds = %18, %27, %30
  %.09.i = phi ptr [ %6, %18 ], [ %31, %30 ], [ %.0.i, %27 ]
  %32 = load i32, ptr %.09.i, align 4, !tbaa !37
  %33 = add i32 %32, 1
  store i32 %33, ptr %.09.i, align 4, !tbaa !37
  store ptr %.09.i, ptr %1, align 8, !tbaa !26
  %34 = getelementptr inbounds nuw i8, ptr %1, i64 8
  store i32 776, ptr %34, align 8, !tbaa !26
  br label %35

35:                                               ; preds = %zend_generator_get_current.exit, %13, %9
  ret void
}